; Function Attrs: nounwind sspstrong uwtable
define internal i64 @mString_to_json_raw(i32 noundef %0, ptr noundef readonly captures(none) %1, i64 noundef %2) #0 {
  %4 = tail call i64 @rb_hash_new() #22
  %5 = load i64, ptr @mJSON, align 8, !tbaa !6
  %6 = load i64, ptr @i_create_id, align 8, !tbaa !6
  %7 = tail call i64 (i64, i64, i32, ...) @rb_funcall(i64 noundef %5, i64 noundef %6, i32 noundef 0) #22
  %8 = tail call i64 @rb_obj_class(i64 noundef %2) #22
  %9 = tail call i64 @rb_class_name(i64 noundef %8) #22
  %10 = tail call i64 @rb_hash_aset(i64 noundef %4, i64 noundef %7, i64 noundef %9) #22
  %11 = load i64, ptr @i_unpack, align 8, !tbaa !6
  %12 = tail call i64 @rb_str_new_static(ptr noundef nonnull @.str.106, i64 noundef 2) #22
  %13 = tail call i64 (i64, i64, i32, ...) @rb_funcall(i64 noundef %2, i64 noundef %11, i32 noundef 1, i64 noundef %12) #22
  %14 = tail call i64 @rb_utf8_str_new_static(ptr noundef nonnull @.str.107, i64 noundef 3) #22
  %15 = tail call i64 @rb_hash_aset(i64 noundef %4, i64 noundef %14, i64 noundef %13) #22
  %16 = icmp eq i64 %4, 0
  %17 = and i64 %4, 7
  %18 = icmp ne i64 %17, 0
  %19 = or i1 %16, %18
  br i1 %19, label %rbimpl_RB_TYPE_P_fastpath.exit.thread.i, label %20, !prof !57

20:                                               ; preds = %3
  %21 = inttoptr i64 %4 to ptr
  %22 = load i64, ptr %21, align 8, !tbaa !23
  %23 = and i64 %22, 31
  %24 = icmp eq i64 %23, 8
  br i1 %24, label %Check_Type.exit, label %rbimpl_RB_TYPE_P_fastpath.exit.thread.i, !prof !24

rbimpl_RB_TYPE_P_fastpath.exit.thread.i:          ; preds = %20, %3
  tail call void @rb_unexpected_type(i64 noundef %4, i32 noundef 8) #25
  unreachable

Check_Type.exit:                                  ; preds = %20
  %25 = tail call i64 @mHash_to_json(i32 noundef %0, ptr noundef %1, i64 noundef %4)
  ret i64 %25
}